target datalayout = "e-m:e-p270:32:32-p271:32:32-p272:64:64-i64:64-i128:128-f80:128-n8:16:32:64-S128"
target triple = "x86_64-pc-linux-gnu"

%struct.DdGen = type { ptr, i32, i32, %union.anon.0, %struct.anon.3, ptr }
%union.anon.0 = type { %struct.anon }
%struct.anon = type { ptr, double }
%struct.anon.3 = type { i32, ptr }
%struct.anon.1 = type { ptr, ptr }

; Function Attrs: nounwind uwtable
define i32 @Cudd_GenFree(ptr noundef %0) #0 {
  %2 = alloca i32, align 4
  %3 = alloca ptr, align 8
  store ptr %0, ptr %3, align 8
  %4 = load ptr, ptr %3, align 8
  %5 = icmp eq ptr %4, null
  br i1 %5, label %6, label %7

6:                                                ; preds = %1
  store i32 0, ptr %2, align 4
  br label %88

7:                                                ; preds = %1
  %8 = load ptr, ptr %3, align 8
  %9 = getelementptr inbounds %struct.DdGen, ptr %8, i32 0, i32 1
  %10 = load i32, ptr %9, align 8
  switch i32 %10, label %80 [
    i32 0, label %11
    i32 3, label %11
    i32 1, label %42
    i32 2, label %64
  ]

11:                                               ; preds = %7, %7
  %12 = load ptr, ptr %3, align 8
  %13 = getelementptr inbounds %struct.DdGen, ptr %12, i32 0, i32 3
  %14 = getelementptr inbounds %struct.anon, ptr %13, i32 0, i32 0
  %15 = load ptr, ptr %14, align 8
  %16 = icmp ne ptr %15, null
  br i1 %16, label %17, label %25

17:                                               ; preds = %11
  %18 = load ptr, ptr %3, align 8
  %19 = getelementptr inbounds %struct.DdGen, ptr %18, i32 0, i32 3
  %20 = getelementptr inbounds %struct.anon, ptr %19, i32 0, i32 0
  %21 = load ptr, ptr %20, align 8
  call void @free(ptr noundef %21) #6
  %22 = load ptr, ptr %3, align 8
  %23 = getelementptr inbounds %struct.DdGen, ptr %22, i32 0, i32 3
  %24 = getelementptr inbounds %struct.anon, ptr %23, i32 0, i32 0
  store ptr null, ptr %24, align 8
  br label %26

25:                                               ; preds = %11
  br label %26

26:                                               ; preds = %25, %17
  %27 = load ptr, ptr %3, align 8
  %28 = getelementptr inbounds %struct.DdGen, ptr %27, i32 0, i32 4
  %29 = getelementptr inbounds %struct.anon.3, ptr %28, i32 0, i32 1
  %30 = load ptr, ptr %29, align 8
  %31 = icmp ne ptr %30, null
  br i1 %31, label %32, label %40

32:                                               ; preds = %26
  %33 = load ptr, ptr %3, align 8
  %34 = getelementptr inbounds %struct.DdGen, ptr %33, i32 0, i32 4
  %35 = getelementptr inbounds %struct.anon.3, ptr %34, i32 0, i32 1
  %36 = load ptr, ptr %35, align 8
  call void @free(ptr noundef %36) #6
  %37 = load ptr, ptr %3, align 8
  %38 = getelementptr inbounds %struct.DdGen, ptr %37, i32 0, i32 4
  %39 = getelementptr inbounds %struct.anon.3, ptr %38, i32 0, i32 1
  store ptr null, ptr %39, align 8
  br label %41

40:                                               ; preds = %26
  br label %41

41:                                               ; preds = %40, %32
  br label %81

42:                                               ; preds = %7
  %43 = load ptr, ptr %3, align 8
  %44 = getelementptr inbounds %struct.DdGen, ptr %43, i32 0, i32 3
  %45 = getelementptr inbounds %struct.anon.1, ptr %44, i32 0, i32 0
  %46 = load ptr, ptr %45, align 8
  %47 = icmp ne ptr %46, null
  br i1 %47, label %48, label %56

48:                                               ; preds = %42
  %49 = load ptr, ptr %3, align 8
  %50 = getelementptr inbounds %struct.DdGen, ptr %49, i32 0, i32 3
  %51 = getelementptr inbounds %struct.anon.1, ptr %50, i32 0, i32 0
  %52 = load ptr, ptr %51, align 8
  call void @free(ptr noundef %52) #6
  %53 = load ptr, ptr %3, align 8
  %54 = getelementptr inbounds %struct.DdGen, ptr %53, i32 0, i32 3
  %55 = getelementptr inbounds %struct.anon.1, ptr %54, i32 0, i32 0
  store ptr null, ptr %55, align 8
  br label %57

56:                                               ; preds = %42
  br label %57

57:                                               ; preds = %56, %48
  %58 = load ptr, ptr %3, align 8
  %59 = getelementptr inbounds %struct.DdGen, ptr %58, i32 0, i32 0
  %60 = load ptr, ptr %59, align 8
  %61 = load ptr, ptr %3, align 8
  %62 = getelementptr inbounds %struct.DdGen, ptr %61, i32 0, i32 5
  %63 = load ptr, ptr %62, align 8
  call void @Cudd_RecursiveDeref(ptr noundef %60, ptr noundef %63)
  br label %81

64:                                               ; preds = %7
  %65 = load ptr, ptr %3, align 8
  %66 = getelementptr inbounds %struct.DdGen, ptr %65, i32 0, i32 4
  %67 = getelementptr inbounds %struct.anon.3, ptr %66, i32 0, i32 1
  %68 = load ptr, ptr %67, align 8
  %69 = icmp ne ptr %68, null
  br i1 %69, label %70, label %78

70:                                               ; preds = %64
  %71 = load ptr, ptr %3, align 8
  %72 = getelementptr inbounds %struct.DdGen, ptr %71, i32 0, i32 4
  %73 = getelementptr inbounds %struct.anon.3, ptr %72, i32 0, i32 1
  %74 = load ptr, ptr %73, align 8
  call void @free(ptr noundef %74) #6
  %75 = load ptr, ptr %3, align 8
  %76 = getelementptr inbounds %struct.DdGen, ptr %75, i32 0, i32 4
  %77 = getelementptr inbounds %struct.anon.3, ptr %76, i32 0, i32 1
  store ptr null, ptr %77, align 8
  br label %79

78:                                               ; preds = %64
  br label %79

79:                                               ; preds = %78, %70
  br label %81

80:                                               ; preds = %7
  store i32 0, ptr %2, align 4
  br label %88

81:                                               ; preds = %79, %57, %41
  %82 = load ptr, ptr %3, align 8
  %83 = icmp ne ptr %82, null
  br i1 %83, label %84, label %86

84:                                               ; preds = %81
  %85 = load ptr, ptr %3, align 8
  call void @free(ptr noundef %85) #6
  store ptr null, ptr %3, align 8
  br label %87

86:                                               ; preds = %81
  br label %87

87:                                               ; preds = %86, %84
  store i32 0, ptr %2, align 4
  br label %88

88:                                               ; preds = %87, %80, %6
  %89 = load i32, ptr %2, align 4
  ret i32 %89
}