; Function Attrs: nounwind uwtable
define noundef i32 @Cudd_GenFree(ptr noundef %0) local_unnamed_addr #0 {
  %2 = icmp eq ptr %0, null
  br i1 %2, label %27, label %3

3:                                                ; preds = %1
  %4 = getelementptr inbounds nuw i8, ptr %0, i64 8
  %5 = load i32, ptr %4, align 8
  switch i32 %5, label %27 [
    i32 0, label %6
    i32 3, label %6
    i32 1, label %14
    i32 2, label %22
  ]

6:                                                ; preds = %3, %3
  %7 = getelementptr inbounds nuw i8, ptr %0, i64 16
  %8 = load ptr, ptr %7, align 8
  %.not23 = icmp eq ptr %8, null
  br i1 %.not23, label %10, label %9

9:                                                ; preds = %6
  tail call void @free(ptr noundef nonnull %8) #23
  store ptr null, ptr %7, align 8
  br label %10

10:                                               ; preds = %6, %9
  %11 = getelementptr inbounds nuw i8, ptr %0, i64 40
  %12 = load ptr, ptr %11, align 8
  %.not24 = icmp eq ptr %12, null
  br i1 %.not24, label %26, label %13

13:                                               ; preds = %10
  tail call void @free(ptr noundef nonnull %12) #23
  br label %26

14:                                               ; preds = %3
  %15 = getelementptr inbounds nuw i8, ptr %0, i64 16
  %16 = load ptr, ptr %15, align 8
  %.not22 = icmp eq ptr %16, null
  br i1 %.not22, label %18, label %17

17:                                               ; preds = %14
  tail call void @free(ptr noundef nonnull %16) #23
  store ptr null, ptr %15, align 8
  br label %18

18:                                               ; preds = %14, %17
  %19 = load ptr, ptr %0, align 8
  %20 = getelementptr inbounds nuw i8, ptr %0, i64 48
  %21 = load ptr, ptr %20, align 8
  tail call void @Cudd_RecursiveDeref(ptr noundef %19, ptr noundef %21) #23
  br label %26

22:                                               ; preds = %3
  %23 = getelementptr inbounds nuw i8, ptr %0, i64 40
  %24 = load ptr, ptr %23, align 8
  %.not = icmp eq ptr %24, null
  br i1 %.not, label %26, label %25

25:                                               ; preds = %22
  tail call void @free(ptr noundef nonnull %24) #23
  br label %26

26:                                               ; preds = %18, %10, %13, %22, %25
  tail call void @free(ptr noundef nonnull %0) #23
  br label %27

27:                                               ; preds = %3, %1, %26
  ret i32 0
}